; Function Attrs: mustprogress nofree norecurse nosync nounwind willreturn memory(argmem: read) uwtable
define range(i32 -1, 2) i32 @rect_height_compare(ptr noundef readonly captures(none) %0, ptr noundef readonly captures(none) %1) #5 {
  %3 = getelementptr inbounds nuw i8, ptr %0, i64 8
  %4 = load i32, ptr %3, align 4, !tbaa !31
  %5 = getelementptr inbounds nuw i8, ptr %1, i64 8
  %6 = load i32, ptr %5, align 4, !tbaa !31
  %7 = icmp sgt i32 %4, %6
  br i1 %7, label %16, label %8

8:                                                ; preds = %2
  %9 = icmp slt i32 %4, %6
  br i1 %9, label %16, label %10

10:                                               ; preds = %8
  %11 = getelementptr inbounds nuw i8, ptr %0, i64 4
  %12 = load i32, ptr %11, align 4, !tbaa !33
  %13 = getelementptr inbounds nuw i8, ptr %1, i64 4
  %14 = load i32, ptr %13, align 4, !tbaa !33
  %15 = tail call i32 @llvm.scmp.i32.i32(i32 %14, i32 %12)
  br label %16

16:                                               ; preds = %8, %2, %10
  %.0 = phi i32 [ %15, %10 ], [ -1, %2 ], [ 1, %8 ]
  ret i32 %.0
}